; Function Attrs: inlinehint mustprogress nounwind uwtable
define internal fastcc void @_ZN3ozz9animation7offline12_GLOBAL__N_116HierarchyBuilderD2Ev(ptr %.0.val) unnamed_addr #3 align 2 personality ptr @__gxx_personality_v0 {
  %.not.i.i.i = icmp eq ptr %.0.val, null
  br i1 %.not.i.i.i, label %_ZNSt6vectorIN3ozz9animation7offline12_GLOBAL__N_116HierarchyBuilder4SpecENS0_12StdAllocatorIS5_EEED2Ev.exit, label %1

1:                                                ; preds = %0
  %2 = invoke noundef ptr @_ZN3ozz6memory17default_allocatorEv()
          to label %3 unwind label %7

3:                                                ; preds = %1
  %4 = load ptr, ptr %2, align 8, !tbaa !13
  %5 = getelementptr inbounds nuw i8, ptr %4, i64 24
  %6 = load ptr, ptr %5, align 8
  invoke void %6(ptr noundef nonnull align 8 dereferenceable(8) %2, ptr noundef nonnull %.0.val)
          to label %_ZNSt6vectorIN3ozz9animation7offline12_GLOBAL__N_116HierarchyBuilder4SpecENS0_12StdAllocatorIS5_EEED2Ev.exit unwind label %7

7:                                                ; preds = %3, %1
  %8 = landingpad { ptr, i32 }
          catch ptr null
  %9 = extractvalue { ptr, i32 } %8, 0
  tail call void @__clang_call_terminate(ptr %9) #17
  unreachable

_ZNSt6vectorIN3ozz9animation7offline12_GLOBAL__N_116HierarchyBuilder4SpecENS0_12StdAllocatorIS5_EEED2Ev.exit: ; preds = %0, %3
  ret void
}